; Function Attrs: mustprogress nounwind uwtable
define dso_local void @_ZN4llvm8codeview15TypeDumpVisitor16visitKnownRecordERNS0_8CVRecordINS0_12TypeLeafKindEEERNS0_13PrecompRecordE(ptr dead_on_unwind noalias writable writeonly sret(%"class.llvm::Error") align 8 captures(none) initializes((0, 8)) %0, ptr noundef nonnull readonly align 8 captures(none) dereferenceable(40) %1, ptr nonnull readnone align 8 captures(none) %2, ptr noundef nonnull readonly align 8 captures(none) dereferenceable(32) %3) unnamed_addr #0 align 2 {
_ZN4llvm12ErrorSuccessD2Ev.exit:
  %4 = getelementptr inbounds nuw i8, ptr %1, i64 8
  %5 = load ptr, ptr %4, align 8
  %6 = getelementptr inbounds nuw i8, ptr %3, i64 4
  %7 = load i32, ptr %6, align 4
  %8 = zext i32 %7 to i64
  %9 = load ptr, ptr %5, align 8
  %10 = getelementptr inbounds nuw i8, ptr %9, i64 336
  %11 = load ptr, ptr %10, align 8
  tail call void %11(ptr noundef nonnull align 8 dereferenceable(44) %5, ptr nonnull @.str.85, i64 10, i64 %8) #14
  %12 = load ptr, ptr %4, align 8
  %13 = getelementptr inbounds nuw i8, ptr %3, i64 8
  %14 = load i32, ptr %13, align 8
  %15 = zext i32 %14 to i64
  %16 = load ptr, ptr %12, align 8
  %17 = getelementptr inbounds nuw i8, ptr %16, i64 336
  %18 = load ptr, ptr %17, align 8
  tail call void %18(ptr noundef nonnull align 8 dereferenceable(44) %12, ptr nonnull @.str.86, i64 5, i64 %15) #14
  %19 = load ptr, ptr %4, align 8
  %20 = getelementptr inbounds nuw i8, ptr %3, i64 12
  %21 = load i32, ptr %20, align 4
  %22 = zext i32 %21 to i64
  %23 = load ptr, ptr %19, align 8
  %24 = getelementptr inbounds nuw i8, ptr %23, i64 336
  %25 = load ptr, ptr %24, align 8
  tail call void %25(ptr noundef nonnull align 8 dereferenceable(44) %19, ptr nonnull @.str.87, i64 9, i64 %22) #14
  %26 = load ptr, ptr %4, align 8
  %27 = getelementptr inbounds nuw i8, ptr %3, i64 16
  %.sroa.0.0.copyload.i = load ptr, ptr %27, align 8
  %.sroa.2.0..sroa_idx.i = getelementptr inbounds nuw i8, ptr %3, i64 24
  %.sroa.2.0.copyload.i = load i64, ptr %.sroa.2.0..sroa_idx.i, align 8
  %28 = load ptr, ptr %26, align 8
  %29 = getelementptr inbounds nuw i8, ptr %28, i64 232
  %30 = load ptr, ptr %29, align 8
  tail call void %30(ptr noundef nonnull align 8 dereferenceable(44) %26, ptr nonnull @.str.88, i64 11, ptr %.sroa.0.0.copyload.i, i64 %.sroa.2.0.copyload.i) #14
  store ptr null, ptr %0, align 8
  ret void
}